target datalayout = "e-m:e-p270:32:32-p271:32:32-p272:64:64-i64:64-i128:128-f80:128-n8:16:32:64-S128"
target triple = "x86_64-pc-linux-gnu"

@.str = private unnamed_addr constant [35 x i8] c"../openssl/test/cipherbytes_test.c\00", align 1
@s = internal global ptr null, align 8
@.str.9 = private unnamed_addr constant [3 x i8] c"sk\00", align 1
@.str.10 = private unnamed_addr constant [5 x i8] c"scsv\00", align 1
@.str.12 = private unnamed_addr constant [22 x i8] c"sk_SSL_CIPHER_num(sk)\00", align 1
@.str.14 = private unnamed_addr constant [24 x i8] c"sk_SSL_CIPHER_num(scsv)\00", align 1
@.str.15 = private unnamed_addr constant [48 x i8] c"SSL_CIPHER_get_name(sk_SSL_CIPHER_value(sk, 0))\00", align 1
@.str.16 = private unnamed_addr constant [13 x i8] c"\22AES128-SHA\22\00", align 1
@.str.17 = private unnamed_addr constant [11 x i8] c"AES128-SHA\00", align 1
@.str.19 = private unnamed_addr constant [2 x i8] c"2\00", align 1
@.str.21 = private unnamed_addr constant [19 x i8] c"DHE-RSA-AES128-SHA\00", align 1
@__const.test_v3.bytes = private unnamed_addr constant [10 x i8] c"\00/\003\00\9F\00\FFV\00", align 1
@.str.22 = private unnamed_addr constant [2 x i8] c"3\00", align 1
@.str.23 = private unnamed_addr constant [48 x i8] c"SSL_CIPHER_get_name(sk_SSL_CIPHER_value(sk, 1))\00", align 1
@.str.24 = private unnamed_addr constant [21 x i8] c"\22DHE-RSA-AES128-SHA\22\00", align 1
@.str.25 = private unnamed_addr constant [48 x i8] c"SSL_CIPHER_get_name(sk_SSL_CIPHER_value(sk, 2))\00", align 1
@.str.26 = private unnamed_addr constant [28 x i8] c"\22DHE-RSA-AES256-GCM-SHA384\22\00", align 1
@.str.27 = private unnamed_addr constant [26 x i8] c"DHE-RSA-AES256-GCM-SHA384\00", align 1
@.str.28 = private unnamed_addr constant [50 x i8] c"SSL_CIPHER_get_name(sk_SSL_CIPHER_value(scsv, 0))\00", align 1
@.str.29 = private unnamed_addr constant [36 x i8] c"\22TLS_EMPTY_RENEGOTIATION_INFO_SCSV\22\00", align 1
@.str.30 = private unnamed_addr constant [34 x i8] c"TLS_EMPTY_RENEGOTIATION_INFO_SCSV\00", align 1
@.str.31 = private unnamed_addr constant [50 x i8] c"SSL_CIPHER_get_name(sk_SSL_CIPHER_value(scsv, 1))\00", align 1
@.str.32 = private unnamed_addr constant [20 x i8] c"\22TLS_FALLBACK_SCSV\22\00", align 1
@.str.33 = private unnamed_addr constant [18 x i8] c"TLS_FALLBACK_SCSV\00", align 1

; Function Attrs: inlinehint nounwind uwtable
define internal ptr @ossl_check_SSL_CIPHER_sk_type(ptr noundef %0) #4 {
  %2 = alloca ptr, align 8
  store ptr %0, ptr %2, align 8, !tbaa !11
  %3 = load ptr, ptr %2, align 8, !tbaa !11
  ret ptr %3
}

; Function Attrs: inlinehint nounwind uwtable
define internal ptr @ossl_check_const_SSL_CIPHER_sk_type(ptr noundef %0) #4 {
  %2 = alloca ptr, align 8
  store ptr %0, ptr %2, align 8, !tbaa !11
  %3 = load ptr, ptr %2, align 8, !tbaa !11
  ret ptr %3
}

; Function Attrs: nounwind uwtable
define internal i32 @test_v3() #0 {
  %1 = alloca ptr, align 8
  %2 = alloca ptr, align 8
  %3 = alloca [10 x i8], align 1
  %4 = alloca i32, align 4
  call void @llvm.lifetime.start.p0(i64 8, ptr %1) #7
  store ptr null, ptr %1, align 8, !tbaa !11
  call void @llvm.lifetime.start.p0(i64 8, ptr %2) #7
  store ptr null, ptr %2, align 8, !tbaa !11
  call void @llvm.lifetime.start.p0(i64 10, ptr %3) #7
  call void @llvm.memcpy.p0.p0.i64(ptr align 1 %3, ptr align 1 @__const.test_v3.bytes, i64 10, i1 false)
  call void @llvm.lifetime.start.p0(i64 4, ptr %4) #7
  store i32 0, ptr %4, align 4, !tbaa !13
  %5 = load ptr, ptr @s, align 8, !tbaa !9
  %6 = getelementptr inbounds [10 x i8], ptr %3, i64 0, i64 0
  %7 = call i32 @SSL_bytes_to_cipher_list(ptr noundef %5, ptr noundef %6, i64 noundef 10, i32 noundef 0, ptr noundef %1, ptr noundef %2)
  %8 = icmp ne i32 %7, 0
  br i1 %8, label %9, label %64

9:                                                ; preds = %0
  %10 = load ptr, ptr %1, align 8, !tbaa !11
  %11 = call i32 @test_ptr(ptr noundef @.str, i32 noundef 109, ptr noundef @.str.9, ptr noundef %10)
  %12 = icmp ne i32 %11, 0
  br i1 %12, label %13, label %64

13:                                               ; preds = %9
  %14 = load ptr, ptr %1, align 8, !tbaa !11
  %15 = call ptr @ossl_check_const_SSL_CIPHER_sk_type(ptr noundef %14)
  %16 = call i32 @OPENSSL_sk_num(ptr noundef %15)
  %17 = call i32 @test_int_eq(ptr noundef @.str, i32 noundef 110, ptr noundef @.str.12, ptr noundef @.str.22, i32 noundef %16, i32 noundef 3)
  %18 = icmp ne i32 %17, 0
  br i1 %18, label %19, label %64

19:                                               ; preds = %13
  %20 = load ptr, ptr %2, align 8, !tbaa !11
  %21 = call i32 @test_ptr(ptr noundef @.str, i32 noundef 111, ptr noundef @.str.10, ptr noundef %20)
  %22 = icmp ne i32 %21, 0
  br i1 %22, label %23, label %64

23:                                               ; preds = %19
  %24 = load ptr, ptr %2, align 8, !tbaa !11
  %25 = call ptr @ossl_check_const_SSL_CIPHER_sk_type(ptr noundef %24)
  %26 = call i32 @OPENSSL_sk_num(ptr noundef %25)
  %27 = call i32 @test_int_eq(ptr noundef @.str, i32 noundef 112, ptr noundef @.str.14, ptr noundef @.str.19, i32 noundef %26, i32 noundef 2)
  %28 = icmp ne i32 %27, 0
  br i1 %28, label %29, label %64

29:                                               ; preds = %23
  %30 = load ptr, ptr %1, align 8, !tbaa !11
  %31 = call ptr @ossl_check_const_SSL_CIPHER_sk_type(ptr noundef %30)
  %32 = call ptr @OPENSSL_sk_value(ptr noundef %31, i32 noundef 0)
  %33 = call ptr @SSL_CIPHER_get_name(ptr noundef %32)
  %34 = call i32 @test_str_eq(ptr noundef @.str, i32 noundef 114, ptr noundef @.str.15, ptr noundef @.str.16, ptr noundef %33, ptr noundef @.str.17)
  %35 = icmp ne i32 %34, 0
  br i1 %35, label %36, label %64

36:                                               ; preds = %29
  %37 = load ptr, ptr %1, align 8, !tbaa !11
  %38 = call ptr @ossl_check_const_SSL_CIPHER_sk_type(ptr noundef %37)
  %39 = call ptr @OPENSSL_sk_value(ptr noundef %38, i32 noundef 1)
  %40 = call ptr @SSL_CIPHER_get_name(ptr noundef %39)
  %41 = call i32 @test_str_eq(ptr noundef @.str, i32 noundef 116, ptr noundef @.str.23, ptr noundef @.str.24, ptr noundef %40, ptr noundef @.str.21)
  %42 = icmp ne i32 %41, 0
  br i1 %42, label %43, label %64

43:                                               ; preds = %36
  %44 = load ptr, ptr %1, align 8, !tbaa !11
  %45 = call ptr @ossl_check_const_SSL_CIPHER_sk_type(ptr noundef %44)
  %46 = call ptr @OPENSSL_sk_value(ptr noundef %45, i32 noundef 2)
  %47 = call ptr @SSL_CIPHER_get_name(ptr noundef %46)
  %48 = call i32 @test_str_eq(ptr noundef @.str, i32 noundef 118, ptr noundef @.str.25, ptr noundef @.str.26, ptr noundef %47, ptr noundef @.str.27)
  %49 = icmp ne i32 %48, 0
  br i1 %49, label %50, label %64

50:                                               ; preds = %43
  %51 = load ptr, ptr %2, align 8, !tbaa !11
  %52 = call ptr @ossl_check_const_SSL_CIPHER_sk_type(ptr noundef %51)
  %53 = call ptr @OPENSSL_sk_value(ptr noundef %52, i32 noundef 0)
  %54 = call ptr @SSL_CIPHER_get_name(ptr noundef %53)
  %55 = call i32 @test_str_eq(ptr noundef @.str, i32 noundef 120, ptr noundef @.str.28, ptr noundef @.str.29, ptr noundef %54, ptr noundef @.str.30)
  %56 = icmp ne i32 %55, 0
  br i1 %56, label %57, label %64

57:                                               ; preds = %50
  %58 = load ptr, ptr %2, align 8, !tbaa !11
  %59 = call ptr @ossl_check_const_SSL_CIPHER_sk_type(ptr noundef %58)
  %60 = call ptr @OPENSSL_sk_value(ptr noundef %59, i32 noundef 1)
  %61 = call ptr @SSL_CIPHER_get_name(ptr noundef %60)
  %62 = call i32 @test_str_eq(ptr noundef @.str, i32 noundef 122, ptr noundef @.str.31, ptr noundef @.str.32, ptr noundef %61, ptr noundef @.str.33)
  %63 = icmp ne i32 %62, 0
  br i1 %63, label %65, label %64

64:                                               ; preds = %57, %50, %43, %36, %29, %23, %19, %13, %9, %0
  br label %66

65:                                               ; preds = %57
  store i32 1, ptr %4, align 4, !tbaa !13
  br label %66

66:                                               ; preds = %65, %64
  %67 = load ptr, ptr %1, align 8, !tbaa !11
  %68 = call ptr @ossl_check_SSL_CIPHER_sk_type(ptr noundef %67)
  call void @OPENSSL_sk_free(ptr noundef %68)
  %69 = load ptr, ptr %2, align 8, !tbaa !11
  %70 = call ptr @ossl_check_SSL_CIPHER_sk_type(ptr noundef %69)
  call void @OPENSSL_sk_free(ptr noundef %70)
  %71 = load i32, ptr %4, align 4, !tbaa !13
  call void @llvm.lifetime.end.p0(i64 4, ptr %4) #7
  call void @llvm.lifetime.end.p0(i64 10, ptr %3) #7
  call void @llvm.lifetime.end.p0(i64 8, ptr %2) #7
  call void @llvm.lifetime.end.p0(i64 8, ptr %1) #7
  ret i32 %71
}