; Function Attrs: nounwind uwtable
define internal range(i32 0, 2) i32 @test_v3() #0 {
  %1 = alloca ptr, align 8
  %2 = alloca ptr, align 8
  %3 = alloca [10 x i8], align 1
  call void @llvm.lifetime.start.p0(i64 8, ptr nonnull %1) #5
  store ptr null, ptr %1, align 8, !tbaa !11
  call void @llvm.lifetime.start.p0(i64 8, ptr nonnull %2) #5
  store ptr null, ptr %2, align 8, !tbaa !11
  call void @llvm.lifetime.start.p0(i64 10, ptr nonnull %3) #5
  call void @llvm.memcpy.p0.p0.i64(ptr noundef nonnull align 1 dereferenceable(10) %3, ptr noundef nonnull align 1 dereferenceable(10) @__const.test_v3.bytes, i64 10, i1 false)
  %4 = load ptr, ptr @s, align 8, !tbaa !9
  %5 = call i32 @SSL_bytes_to_cipher_list(ptr noundef %4, ptr noundef nonnull %3, i64 noundef 10, i32 noundef 0, ptr noundef nonnull %1, ptr noundef nonnull %2) #5
  %.not = icmp eq i32 %5, 0
  br i1 %.not, label %45, label %6

6:                                                ; preds = %0
  %7 = load ptr, ptr %1, align 8, !tbaa !11
  %8 = call i32 @test_ptr(ptr noundef nonnull @.str, i32 noundef 109, ptr noundef nonnull @.str.9, ptr noundef %7) #5
  %.not1 = icmp eq i32 %8, 0
  br i1 %.not1, label %45, label %9

9:                                                ; preds = %6
  %10 = load ptr, ptr %1, align 8, !tbaa !11
  %11 = call i32 @OPENSSL_sk_num(ptr noundef %10) #5
  %12 = call i32 @test_int_eq(ptr noundef nonnull @.str, i32 noundef 110, ptr noundef nonnull @.str.12, ptr noundef nonnull @.str.22, i32 noundef %11, i32 noundef 3) #5
  %.not2 = icmp eq i32 %12, 0
  br i1 %.not2, label %45, label %13

13:                                               ; preds = %9
  %14 = load ptr, ptr %2, align 8, !tbaa !11
  %15 = call i32 @test_ptr(ptr noundef nonnull @.str, i32 noundef 111, ptr noundef nonnull @.str.10, ptr noundef %14) #5
  %.not3 = icmp eq i32 %15, 0
  br i1 %.not3, label %45, label %16

16:                                               ; preds = %13
  %17 = load ptr, ptr %2, align 8, !tbaa !11
  %18 = call i32 @OPENSSL_sk_num(ptr noundef %17) #5
  %19 = call i32 @test_int_eq(ptr noundef nonnull @.str, i32 noundef 112, ptr noundef nonnull @.str.14, ptr noundef nonnull @.str.19, i32 noundef %18, i32 noundef 2) #5
  %.not4 = icmp eq i32 %19, 0
  br i1 %.not4, label %45, label %20

20:                                               ; preds = %16
  %21 = load ptr, ptr %1, align 8, !tbaa !11
  %22 = call ptr @OPENSSL_sk_value(ptr noundef %21, i32 noundef 0) #5
  %23 = call ptr @SSL_CIPHER_get_name(ptr noundef %22) #5
  %24 = call i32 @test_str_eq(ptr noundef nonnull @.str, i32 noundef 114, ptr noundef nonnull @.str.15, ptr noundef nonnull @.str.16, ptr noundef %23, ptr noundef nonnull @.str.17) #5
  %.not5 = icmp eq i32 %24, 0
  br i1 %.not5, label %45, label %25

25:                                               ; preds = %20
  %26 = load ptr, ptr %1, align 8, !tbaa !11
  %27 = call ptr @OPENSSL_sk_value(ptr noundef %26, i32 noundef 1) #5
  %28 = call ptr @SSL_CIPHER_get_name(ptr noundef %27) #5
  %29 = call i32 @test_str_eq(ptr noundef nonnull @.str, i32 noundef 116, ptr noundef nonnull @.str.23, ptr noundef nonnull @.str.24, ptr noundef %28, ptr noundef nonnull @.str.21) #5
  %.not6 = icmp eq i32 %29, 0
  br i1 %.not6, label %45, label %30

30:                                               ; preds = %25
  %31 = load ptr, ptr %1, align 8, !tbaa !11
  %32 = call ptr @OPENSSL_sk_value(ptr noundef %31, i32 noundef 2) #5
  %33 = call ptr @SSL_CIPHER_get_name(ptr noundef %32) #5
  %34 = call i32 @test_str_eq(ptr noundef nonnull @.str, i32 noundef 118, ptr noundef nonnull @.str.25, ptr noundef nonnull @.str.26, ptr noundef %33, ptr noundef nonnull @.str.27) #5
  %.not7 = icmp eq i32 %34, 0
  br i1 %.not7, label %45, label %35

35:                                               ; preds = %30
  %36 = load ptr, ptr %2, align 8, !tbaa !11
  %37 = call ptr @OPENSSL_sk_value(ptr noundef %36, i32 noundef 0) #5
  %38 = call ptr @SSL_CIPHER_get_name(ptr noundef %37) #5
  %39 = call i32 @test_str_eq(ptr noundef nonnull @.str, i32 noundef 120, ptr noundef nonnull @.str.28, ptr noundef nonnull @.str.29, ptr noundef %38, ptr noundef nonnull @.str.30) #5
  %.not8 = icmp eq i32 %39, 0
  br i1 %.not8, label %45, label %40

40:                                               ; preds = %35
  %41 = load ptr, ptr %2, align 8, !tbaa !11
  %42 = call ptr @OPENSSL_sk_value(ptr noundef %41, i32 noundef 1) #5
  %43 = call ptr @SSL_CIPHER_get_name(ptr noundef %42) #5
  %44 = call i32 @test_str_eq(ptr noundef nonnull @.str, i32 noundef 122, ptr noundef nonnull @.str.31, ptr noundef nonnull @.str.32, ptr noundef %43, ptr noundef nonnull @.str.33) #5
  %.not9 = icmp ne i32 %44, 0
  %spec.select = zext i1 %.not9 to i32
  br label %45

45:                                               ; preds = %40, %0, %6, %9, %13, %16, %20, %25, %30, %35
  %.0 = phi i32 [ 0, %35 ], [ 0, %30 ], [ 0, %25 ], [ 0, %20 ], [ 0, %16 ], [ 0, %13 ], [ 0, %9 ], [ 0, %6 ], [ 0, %0 ], [ %spec.select, %40 ]
  %46 = load ptr, ptr %1, align 8, !tbaa !11
  call void @OPENSSL_sk_free(ptr noundef %46) #5
  %47 = load ptr, ptr %2, align 8, !tbaa !11
  call void @OPENSSL_sk_free(ptr noundef %47) #5
  call void @llvm.lifetime.end.p0(i64 10, ptr nonnull %3) #5
  call void @llvm.lifetime.end.p0(i64 8, ptr nonnull %2) #5
  call void @llvm.lifetime.end.p0(i64 8, ptr nonnull %1) #5
  ret i32 %.0
}